; Function Attrs: mustprogress uwtable
define void @_ZN3gmx14ColvarsOptions15processTopologyEP10gmx_mtop_t(ptr noundef nonnull writeonly align 8 captures(none) dereferenceable(560) initializes((312, 384)) %0, ptr noundef nonnull %1) local_unnamed_addr #0 align 2 {
  %3 = alloca %struct.t_atoms, align 8
  call void @llvm.lifetime.start.p0(i64 72, ptr nonnull %3) #27
  call void @_Z21gmx_mtop_global_atomsRK10gmx_mtop_t(ptr dead_on_unwind nonnull writable sret(%struct.t_atoms) align 8 %3, ptr noundef nonnull align 1 %1)
  %4 = getelementptr inbounds nuw i8, ptr %0, i64 312
  call void @llvm.memcpy.p0.p0.i64(ptr noundef nonnull align 8 dereferenceable(72) %4, ptr noundef nonnull align 8 dereferenceable(72) %3, i64 72, i1 false), !tbaa.struct !494
  call void @llvm.lifetime.end.p0(i64 72, ptr nonnull %3) #27
  ret void
}